; Function Attrs: nounwind uwtable
define dso_local noundef ptr @ExecInitBitmapAnd(ptr noundef %0, ptr noundef %1, i32 noundef %2) local_unnamed_addr #0 {
  %4 = tail call noundef ptr @palloc0(i64 noundef 216) #5
  store i32 399, ptr %4, align 4
  %5 = getelementptr inbounds nuw i8, ptr %0, i64 104
  %6 = load ptr, ptr %5, align 8
  %.not.i = icmp eq ptr %6, null
  br i1 %.not.i, label %list_length.exit, label %7

7:                                                ; preds = %3
  %8 = getelementptr inbounds nuw i8, ptr %6, i64 4
  %9 = load i32, ptr %8, align 4
  br label %list_length.exit

list_length.exit:                                 ; preds = %3, %7
  %10 = phi i32 [ %9, %7 ], [ 0, %3 ]
  %11 = sext i32 %10 to i64
  %12 = shl nsw i64 %11, 3
  %13 = tail call ptr @palloc0(i64 noundef %12) #5
  %14 = getelementptr inbounds nuw i8, ptr %4, i64 8
  store ptr %0, ptr %14, align 8
  %15 = getelementptr inbounds nuw i8, ptr %4, i64 16
  store ptr %1, ptr %15, align 8
  %16 = getelementptr inbounds nuw i8, ptr %4, i64 24
  store ptr @ExecBitmapAnd, ptr %16, align 8
  %17 = getelementptr inbounds nuw i8, ptr %4, i64 200
  store ptr %13, ptr %17, align 8
  %18 = getelementptr inbounds nuw i8, ptr %4, i64 208
  store i32 %10, ptr %18, align 8
  %19 = load ptr, ptr %5, align 8
  %20 = getelementptr inbounds nuw i8, ptr %19, i64 4
  %.not = icmp eq ptr %19, null
  br i1 %.not, label %._crit_edge, label %.lr.ph

.lr.ph:                                           ; preds = %list_length.exit
  %21 = getelementptr inbounds nuw i8, ptr %19, i64 16
  %22 = load i32, ptr %20, align 4
  %23 = icmp sgt i32 %22, 0
  br i1 %23, label %.lr.ph33, label %._crit_edge

._crit_edge:                                      ; preds = %.lr.ph33, %.lr.ph, %list_length.exit
  ret ptr %4

.lr.ph33:                                         ; preds = %.lr.ph, %.lr.ph33
  %indvars.iv = phi i64 [ %indvars.iv.next, %.lr.ph33 ], [ 0, %.lr.ph ]
  %24 = load ptr, ptr %21, align 8
  %25 = getelementptr inbounds nuw %union.ListCell, ptr %24, i64 %indvars.iv
  %26 = load ptr, ptr %25, align 8
  %27 = tail call ptr @ExecInitNode(ptr noundef %26, ptr noundef %1, i32 noundef %2) #5
  %28 = getelementptr inbounds nuw ptr, ptr %13, i64 %indvars.iv
  store ptr %27, ptr %28, align 8
  %indvars.iv.next = add nuw nsw i64 %indvars.iv, 1
  %29 = load i32, ptr %20, align 4
  %30 = sext i32 %29 to i64
  %31 = icmp slt i64 %indvars.iv.next, %30
  br i1 %31, label %.lr.ph33, label %._crit_edge
}